target datalayout = "e-m:e-p270:32:32-p271:32:32-p272:64:64-i64:64-i128:128-f80:128-n8:16:32:64-S128"
target triple = "x86_64-pc-linux-gnu"

%struct.ossl_quic_tx_packetiser_st = type { %struct.ossl_quic_tx_packetiser_args_st, ptr, i64, ptr, ptr, %struct.quic_fifd_st, [3 x i64], %struct.OSSL_TIME, i64, i16, %struct.ossl_quic_frame_conn_close_st, i64, i64, [4 x %struct.txp_el], ptr, ptr, ptr, ptr, ptr }
%struct.ossl_quic_tx_packetiser_args_st = type { %struct.quic_conn_id_st, %struct.quic_conn_id_st, %union.bio_addr_st, i32, ptr, ptr, ptr, ptr, ptr, ptr, ptr, ptr, ptr, ptr, ptr, ptr, ptr, ptr, ptr, i32, [3 x ptr] }
%struct.quic_conn_id_st = type { i8, [20 x i8] }
%union.bio_addr_st = type { %struct.sockaddr_in6, [84 x i8] }
%struct.sockaddr_in6 = type { i16, i16, i32, %struct.in6_addr, i32 }
%struct.in6_addr = type { %union.anon }
%union.anon = type { [4 x i32] }
%struct.quic_fifd_st = type { ptr, ptr, ptr, ptr, ptr, ptr, ptr, ptr, ptr, ptr, ptr, ptr, ptr }
%struct.OSSL_TIME = type { i64 }
%struct.ossl_quic_frame_conn_close_st = type { i8, i64, i64, ptr, i64 }
%struct.txp_el = type { ptr, i64, ptr, i64 }
%struct.ossl_cc_method_st = type { ptr, ptr, ptr, ptr, ptr, ptr, ptr, ptr, ptr, ptr, ptr, ptr, ptr, ptr }

; Function Attrs: inlinehint nounwind uwtable
define internal i64 @ossl_ticks2time(i64 noundef %0) #4 {
  %2 = alloca %struct.OSSL_TIME, align 8
  %3 = alloca i64, align 8
  store i64 %0, ptr %3, align 8, !tbaa !28
  %4 = load i64, ptr %3, align 8, !tbaa !28
  %5 = getelementptr inbounds nuw %struct.OSSL_TIME, ptr %2, i32 0, i32 0
  store i64 %4, ptr %5, align 8, !tbaa !198
  %6 = getelementptr inbounds nuw %struct.OSSL_TIME, ptr %2, i32 0, i32 0
  %7 = load i64, ptr %6, align 8
  ret i64 %7
}

; Function Attrs: inlinehint nounwind uwtable
define internal i64 @ossl_time_min(i64 %0, i64 %1) #4 {
  %3 = alloca %struct.OSSL_TIME, align 8
  %4 = alloca %struct.OSSL_TIME, align 8
  %5 = alloca %struct.OSSL_TIME, align 8
  %6 = getelementptr inbounds nuw %struct.OSSL_TIME, ptr %4, i32 0, i32 0
  store i64 %0, ptr %6, align 8
  %7 = getelementptr inbounds nuw %struct.OSSL_TIME, ptr %5, i32 0, i32 0
  store i64 %1, ptr %7, align 8
  %8 = getelementptr inbounds nuw %struct.OSSL_TIME, ptr %4, i32 0, i32 0
  %9 = load i64, ptr %8, align 8, !tbaa !198
  %10 = getelementptr inbounds nuw %struct.OSSL_TIME, ptr %5, i32 0, i32 0
  %11 = load i64, ptr %10, align 8, !tbaa !198
  %12 = icmp ult i64 %9, %11
  br i1 %12, label %13, label %14

13:                                               ; preds = %2
  call void @llvm.memcpy.p0.p0.i64(ptr align 8 %3, ptr align 8 %4, i64 8, i1 false), !tbaa.struct !54
  br label %15

14:                                               ; preds = %2
  call void @llvm.memcpy.p0.p0.i64(ptr align 8 %3, ptr align 8 %5, i64 8, i1 false), !tbaa.struct !54
  br label %15

15:                                               ; preds = %14, %13
  %16 = getelementptr inbounds nuw %struct.OSSL_TIME, ptr %3, i32 0, i32 0
  %17 = load i64, ptr %16, align 8
  ret i64 %17
}

; Function Attrs: inlinehint nounwind uwtable
define internal i32 @ossl_quic_enc_level_to_pn_space(i32 noundef %0) #4 {
  %2 = alloca i32, align 4
  %3 = alloca i32, align 4
  store i32 %0, ptr %3, align 4, !tbaa !43
  %4 = load i32, ptr %3, align 4, !tbaa !43
  switch i32 %4, label %8 [
    i32 0, label %5
    i32 2, label %6
    i32 1, label %7
    i32 3, label %7
  ]

5:                                                ; preds = %1
  store i32 0, ptr %2, align 4
  br label %9

6:                                                ; preds = %1
  store i32 1, ptr %2, align 4
  br label %9

7:                                                ; preds = %1, %1
  store i32 2, ptr %2, align 4
  br label %9

8:                                                ; preds = %1
  store i32 2, ptr %2, align 4
  br label %9

9:                                                ; preds = %8, %7, %6, %5
  %10 = load i32, ptr %2, align 4
  ret i32 %10
}

; Function Attrs: inlinehint nounwind uwtable
define internal i64 @ossl_time_infinite() #4 {
  %1 = alloca %struct.OSSL_TIME, align 8
  %2 = call i64 @ossl_ticks2time(i64 noundef -1)
  %3 = getelementptr inbounds nuw %struct.OSSL_TIME, ptr %1, i32 0, i32 0
  store i64 %2, ptr %3, align 8
  %4 = getelementptr inbounds nuw %struct.OSSL_TIME, ptr %1, i32 0, i32 0
  %5 = load i64, ptr %4, align 8
  ret i64 %5
}

; Function Attrs: nounwind uwtable
define i64 @ossl_quic_tx_packetiser_get_deadline(ptr noundef %0) #0 {
  %2 = alloca %struct.OSSL_TIME, align 8
  %3 = alloca ptr, align 8
  %4 = alloca i32, align 4
  %5 = alloca i32, align 4
  %6 = alloca %struct.OSSL_TIME, align 8
  %7 = alloca %struct.OSSL_TIME, align 8
  %8 = alloca %struct.OSSL_TIME, align 8
  %9 = alloca %struct.OSSL_TIME, align 8
  store ptr %0, ptr %3, align 8, !tbaa !3
  %10 = call i64 @ossl_time_infinite()
  %11 = getelementptr inbounds nuw %struct.OSSL_TIME, ptr %2, i32 0, i32 0
  store i64 %10, ptr %11, align 8
  call void @llvm.lifetime.start.p0(i64 4, ptr %4) #7
  call void @llvm.lifetime.start.p0(i64 4, ptr %5) #7
  store i32 0, ptr %4, align 4, !tbaa !43
  br label %12

12:                                               ; preds = %40, %1
  %13 = load i32, ptr %4, align 4, !tbaa !43
  %14 = icmp ult i32 %13, 4
  br i1 %14, label %15, label %43

15:                                               ; preds = %12
  %16 = load ptr, ptr %3, align 8, !tbaa !3
  %17 = getelementptr inbounds nuw %struct.ossl_quic_tx_packetiser_st, ptr %16, i32 0, i32 0
  %18 = getelementptr inbounds nuw %struct.ossl_quic_tx_packetiser_args_st, ptr %17, i32 0, i32 4
  %19 = load ptr, ptr %18, align 8, !tbaa !86
  %20 = load i32, ptr %4, align 4, !tbaa !43
  %21 = call i32 @ossl_qtx_is_enc_level_provisioned(ptr noundef %19, i32 noundef %20)
  %22 = icmp ne i32 %21, 0
  br i1 %22, label %23, label %39

23:                                               ; preds = %15
  %24 = load i32, ptr %4, align 4, !tbaa !43
  %25 = call i32 @ossl_quic_enc_level_to_pn_space(i32 noundef %24)
  store i32 %25, ptr %5, align 4, !tbaa !43
  call void @llvm.lifetime.start.p0(i64 8, ptr %6) #7
  %26 = load ptr, ptr %3, align 8, !tbaa !3
  %27 = getelementptr inbounds nuw %struct.ossl_quic_tx_packetiser_st, ptr %26, i32 0, i32 0
  %28 = getelementptr inbounds nuw %struct.ossl_quic_tx_packetiser_args_st, ptr %27, i32 0, i32 7
  %29 = load ptr, ptr %28, align 8, !tbaa !56
  %30 = load i32, ptr %5, align 4, !tbaa !43
  %31 = call i64 @ossl_ackm_get_ack_deadline(ptr noundef %29, i32 noundef %30)
  %32 = getelementptr inbounds nuw %struct.OSSL_TIME, ptr %7, i32 0, i32 0
  store i64 %31, ptr %32, align 8
  %33 = getelementptr inbounds nuw %struct.OSSL_TIME, ptr %2, i32 0, i32 0
  %34 = load i64, ptr %33, align 8
  %35 = getelementptr inbounds nuw %struct.OSSL_TIME, ptr %7, i32 0, i32 0
  %36 = load i64, ptr %35, align 8
  %37 = call i64 @ossl_time_min(i64 %34, i64 %36)
  %38 = getelementptr inbounds nuw %struct.OSSL_TIME, ptr %6, i32 0, i32 0
  store i64 %37, ptr %38, align 8
  call void @llvm.memcpy.p0.p0.i64(ptr align 8 %2, ptr align 8 %6, i64 8, i1 false), !tbaa.struct !54
  call void @llvm.lifetime.end.p0(i64 8, ptr %6) #7
  br label %39

39:                                               ; preds = %23, %15
  br label %40

40:                                               ; preds = %39
  %41 = load i32, ptr %4, align 4, !tbaa !43
  %42 = add i32 %41, 1
  store i32 %42, ptr %4, align 4, !tbaa !43
  br label %12, !llvm.loop !196

43:                                               ; preds = %12
  %44 = load ptr, ptr %3, align 8, !tbaa !3
  %45 = getelementptr inbounds nuw %struct.ossl_quic_tx_packetiser_st, ptr %44, i32 0, i32 0
  %46 = getelementptr inbounds nuw %struct.ossl_quic_tx_packetiser_args_st, ptr %45, i32 0, i32 13
  %47 = load ptr, ptr %46, align 8, !tbaa !98
  %48 = getelementptr inbounds nuw %struct.ossl_cc_method_st, ptr %47, i32 0, i32 6
  %49 = load ptr, ptr %48, align 8, !tbaa !99
  %50 = load ptr, ptr %3, align 8, !tbaa !3
  %51 = getelementptr inbounds nuw %struct.ossl_quic_tx_packetiser_st, ptr %50, i32 0, i32 0
  %52 = getelementptr inbounds nuw %struct.ossl_quic_tx_packetiser_args_st, ptr %51, i32 0, i32 14
  %53 = load ptr, ptr %52, align 8, !tbaa !101
  %54 = call i64 %49(ptr noundef %53)
  %55 = icmp eq i64 %54, 0
  br i1 %55, label %56, label %75

56:                                               ; preds = %43
  call void @llvm.lifetime.start.p0(i64 8, ptr %8) #7
  %57 = load ptr, ptr %3, align 8, !tbaa !3
  %58 = getelementptr inbounds nuw %struct.ossl_quic_tx_packetiser_st, ptr %57, i32 0, i32 0
  %59 = getelementptr inbounds nuw %struct.ossl_quic_tx_packetiser_args_st, ptr %58, i32 0, i32 13
  %60 = load ptr, ptr %59, align 8, !tbaa !98
  %61 = getelementptr inbounds nuw %struct.ossl_cc_method_st, ptr %60, i32 0, i32 7
  %62 = load ptr, ptr %61, align 8, !tbaa !197
  %63 = load ptr, ptr %3, align 8, !tbaa !3
  %64 = getelementptr inbounds nuw %struct.ossl_quic_tx_packetiser_st, ptr %63, i32 0, i32 0
  %65 = getelementptr inbounds nuw %struct.ossl_quic_tx_packetiser_args_st, ptr %64, i32 0, i32 14
  %66 = load ptr, ptr %65, align 8, !tbaa !101
  %67 = call i64 %62(ptr noundef %66)
  %68 = getelementptr inbounds nuw %struct.OSSL_TIME, ptr %9, i32 0, i32 0
  store i64 %67, ptr %68, align 8
  %69 = getelementptr inbounds nuw %struct.OSSL_TIME, ptr %2, i32 0, i32 0
  %70 = load i64, ptr %69, align 8
  %71 = getelementptr inbounds nuw %struct.OSSL_TIME, ptr %9, i32 0, i32 0
  %72 = load i64, ptr %71, align 8
  %73 = call i64 @ossl_time_min(i64 %70, i64 %72)
  %74 = getelementptr inbounds nuw %struct.OSSL_TIME, ptr %8, i32 0, i32 0
  store i64 %73, ptr %74, align 8
  call void @llvm.memcpy.p0.p0.i64(ptr align 8 %2, ptr align 8 %8, i64 8, i1 false), !tbaa.struct !54
  call void @llvm.lifetime.end.p0(i64 8, ptr %8) #7
  br label %75

75:                                               ; preds = %56, %43
  call void @llvm.lifetime.end.p0(i64 4, ptr %5) #7
  call void @llvm.lifetime.end.p0(i64 4, ptr %4) #7
  %76 = getelementptr inbounds nuw %struct.OSSL_TIME, ptr %2, i32 0, i32 0
  %77 = load i64, ptr %76, align 8
  ret i64 %77
}