; Function Attrs: nounwind uwtable
define i64 @ossl_quic_tx_packetiser_get_deadline(ptr noundef readonly captures(none) %0) local_unnamed_addr #3 {
  %2 = getelementptr inbounds nuw i8, ptr %0, i64 160
  %3 = getelementptr inbounds nuw i8, ptr %0, i64 184
  br label %4

4:                                                ; preds = %1, %10
  %.sroa.013.018 = phi i64 [ -1, %1 ], [ %.sroa.013.1, %10 ]
  %.017 = phi i32 [ 0, %1 ], [ %11, %10 ]
  %5 = load ptr, ptr %2, align 8, !tbaa !66
  %6 = tail call i32 @ossl_qtx_is_enc_level_provisioned(ptr noundef %5, i32 noundef %.017) #10
  %.not = icmp eq i32 %6, 0
  br i1 %.not, label %10, label %7

7:                                                ; preds = %4
  %switch.selectcmp.i = icmp eq i32 %.017, 2
  %switch.select.i = select i1 %switch.selectcmp.i, i32 1, i32 2
  %switch.selectcmp2.i = icmp eq i32 %.017, 0
  %switch.select3.i = select i1 %switch.selectcmp2.i, i32 0, i32 %switch.select.i
  %8 = load ptr, ptr %3, align 8, !tbaa !51
  %9 = tail call i64 @ossl_ackm_get_ack_deadline(ptr noundef %8, i32 noundef %switch.select3.i) #10
  %..i = tail call i64 @llvm.umin.i64(i64 %.sroa.013.018, i64 %9)
  br label %10

10:                                               ; preds = %4, %7
  %.sroa.013.1 = phi i64 [ %..i, %7 ], [ %.sroa.013.018, %4 ]
  %11 = add nuw nsw i32 %.017, 1
  %exitcond.not = icmp eq i32 %11, 4
  br i1 %exitcond.not, label %12, label %4, !llvm.loop !218

12:                                               ; preds = %10
  %13 = getelementptr inbounds nuw i8, ptr %0, i64 232
  %14 = load ptr, ptr %13, align 8, !tbaa !83
  %15 = getelementptr inbounds nuw i8, ptr %14, i64 48
  %16 = load ptr, ptr %15, align 8, !tbaa !84
  %17 = getelementptr inbounds nuw i8, ptr %0, i64 240
  %18 = load ptr, ptr %17, align 8, !tbaa !86
  %19 = tail call i64 %16(ptr noundef %18) #10
  %20 = icmp eq i64 %19, 0
  br i1 %20, label %21, label %27

21:                                               ; preds = %12
  %22 = load ptr, ptr %13, align 8, !tbaa !83
  %23 = getelementptr inbounds nuw i8, ptr %22, i64 56
  %24 = load ptr, ptr %23, align 8, !tbaa !219
  %25 = load ptr, ptr %17, align 8, !tbaa !86
  %26 = tail call i64 %24(ptr noundef %25) #10
  %..i16 = tail call i64 @llvm.umin.i64(i64 %.sroa.013.1, i64 %26)
  br label %27

27:                                               ; preds = %21, %12
  %.sroa.013.2 = phi i64 [ %..i16, %21 ], [ %.sroa.013.1, %12 ]
  ret i64 %.sroa.013.2
}